target datalayout = "e-m:e-p270:32:32-p271:32:32-p272:64:64-i64:64-i128:128-f80:128-n8:16:32:64-S128"
target triple = "x86_64-unknown-linux-gnu"

%"class.google::protobuf::SimpleDescriptorDatabase" = type { %"class.google::protobuf::DescriptorDatabase", %"class.google::protobuf::SimpleDescriptorDatabase::DescriptorIndex", %"class.std::vector" }
%"class.google::protobuf::DescriptorDatabase" = type { ptr }
%"class.google::protobuf::SimpleDescriptorDatabase::DescriptorIndex" = type { %"class.absl::lts_20230802::btree_map", %"class.absl::lts_20230802::btree_map", %"class.absl::lts_20230802::btree_map.4" }
%"class.absl::lts_20230802::btree_map" = type { %"class.absl::lts_20230802::container_internal::btree_map_container" }
%"class.absl::lts_20230802::container_internal::btree_map_container" = type { %"class.absl::lts_20230802::container_internal::btree_set_container" }
%"class.absl::lts_20230802::container_internal::btree_set_container" = type { %"class.absl::lts_20230802::container_internal::btree_container" }
%"class.absl::lts_20230802::container_internal::btree_container" = type { %"class.absl::lts_20230802::container_internal::btree" }
%"class.absl::lts_20230802::container_internal::btree" = type { ptr, %"class.absl::lts_20230802::container_internal::CompressedTuple", i64 }
%"class.absl::lts_20230802::container_internal::CompressedTuple" = type { %"struct.absl::lts_20230802::container_internal::internal_compressed_tuple::CompressedTupleImpl" }
%"struct.absl::lts_20230802::container_internal::internal_compressed_tuple::CompressedTupleImpl" = type { %"struct.absl::lts_20230802::container_internal::internal_compressed_tuple::Storage.3" }
%"struct.absl::lts_20230802::container_internal::internal_compressed_tuple::Storage.3" = type { ptr }
%"class.absl::lts_20230802::btree_map.4" = type { %"class.absl::lts_20230802::container_internal::btree_map_container.5" }
%"class.absl::lts_20230802::container_internal::btree_map_container.5" = type { %"class.absl::lts_20230802::container_internal::btree_set_container.6" }
%"class.absl::lts_20230802::container_internal::btree_set_container.6" = type { %"class.absl::lts_20230802::container_internal::btree_container.7" }
%"class.absl::lts_20230802::container_internal::btree_container.7" = type { %"class.absl::lts_20230802::container_internal::btree.8" }
%"class.absl::lts_20230802::container_internal::btree.8" = type { ptr, %"class.absl::lts_20230802::container_internal::CompressedTuple.9", i64 }
%"class.absl::lts_20230802::container_internal::CompressedTuple.9" = type { %"struct.absl::lts_20230802::container_internal::internal_compressed_tuple::CompressedTupleImpl.10" }
%"struct.absl::lts_20230802::container_internal::internal_compressed_tuple::CompressedTupleImpl.10" = type { %"struct.absl::lts_20230802::container_internal::internal_compressed_tuple::Storage.16" }
%"struct.absl::lts_20230802::container_internal::internal_compressed_tuple::Storage.16" = type { ptr }
%"class.std::vector" = type { %"struct.std::_Vector_base" }
%"struct.std::_Vector_base" = type { %"struct.std::_Vector_base<std::unique_ptr<const google::protobuf::FileDescriptorProto>, std::allocator<std::unique_ptr<const google::protobuf::FileDescriptorProto>>>::_Vector_impl" }
%"struct.std::_Vector_base<std::unique_ptr<const google::protobuf::FileDescriptorProto>, std::allocator<std::unique_ptr<const google::protobuf::FileDescriptorProto>>>::_Vector_impl" = type { %"struct.std::_Vector_base<std::unique_ptr<const google::protobuf::FileDescriptorProto>, std::allocator<std::unique_ptr<const google::protobuf::FileDescriptorProto>>>::_Vector_impl_data" }
%"struct.std::_Vector_base<std::unique_ptr<const google::protobuf::FileDescriptorProto>, std::allocator<std::unique_ptr<const google::protobuf::FileDescriptorProto>>>::_Vector_impl_data" = type { ptr, ptr, ptr }

; Function Attrs: mustprogress uwtable
define noundef zeroext i1 @_ZN6google8protobuf24SimpleDescriptorDatabase9MaybeCopyEPKNS0_19FileDescriptorProtoEPS2_(ptr noundef nonnull align 8 dereferenceable(104) %this, ptr noundef %file, ptr noundef %output) #6 align 2 {
entry:
  %retval = alloca i1, align 1
  %this.addr = alloca ptr, align 8
  %file.addr = alloca ptr, align 8
  %output.addr = alloca ptr, align 8
  store ptr %this, ptr %this.addr, align 8
  store ptr %file, ptr %file.addr, align 8
  store ptr %output, ptr %output.addr, align 8
  %0 = load ptr, ptr %file.addr, align 8
  %cmp = icmp eq ptr %0, null
  br i1 %cmp, label %if.then, label %if.end

if.then:                                          ; preds = %entry
  store i1 false, ptr %retval, align 1
  br label %return

if.end:                                           ; preds = %entry
  %1 = load ptr, ptr %output.addr, align 8
  %2 = load ptr, ptr %file.addr, align 8
  call void @_ZN6google8protobuf19FileDescriptorProto8CopyFromERKS1_(ptr noundef nonnull align 8 dereferenceable(224) %1, ptr noundef nonnull align 8 dereferenceable(224) %2)
  store i1 true, ptr %retval, align 1
  br label %return

return:                                           ; preds = %if.end, %if.then
  %3 = load i1, ptr %retval, align 1
  ret i1 %3
}

; Function Attrs: mustprogress uwtable
define noundef zeroext i1 @_ZN6google8protobuf24SimpleDescriptorDatabase14FindFileByNameERKNSt7__cxx1112basic_stringIcSt11char_traitsIcESaIcEEEPNS0_19FileDescriptorProtoE(ptr noundef nonnull align 8 dereferenceable(104) %this, ptr noundef nonnull align 8 dereferenceable(32) %filename, ptr noundef %output) unnamed_addr #6 align 2 {
entry:
  %this.addr = alloca ptr, align 8
  %filename.addr = alloca ptr, align 8
  %output.addr = alloca ptr, align 8
  store ptr %this, ptr %this.addr, align 8
  store ptr %filename, ptr %filename.addr, align 8
  store ptr %output, ptr %output.addr, align 8
  %this1 = load ptr, ptr %this.addr, align 8
  %index_ = getelementptr inbounds %"class.google::protobuf::SimpleDescriptorDatabase", ptr %this1, i32 0, i32 1
  %0 = load ptr, ptr %filename.addr, align 8
  %call = call noundef ptr @_ZN6google8protobuf24SimpleDescriptorDatabase15DescriptorIndexIPKNS0_19FileDescriptorProtoEE8FindFileERKNSt7__cxx1112basic_stringIcSt11char_traitsIcESaIcEEE(ptr noundef nonnull align 8 dereferenceable(72) %index_, ptr noundef nonnull align 8 dereferenceable(32) %0)
  %1 = load ptr, ptr %output.addr, align 8
  %call2 = call noundef zeroext i1 @_ZN6google8protobuf24SimpleDescriptorDatabase9MaybeCopyEPKNS0_19FileDescriptorProtoEPS2_(ptr noundef nonnull align 8 dereferenceable(104) %this1, ptr noundef %call, ptr noundef %1)
  ret i1 %call2
}